; Function Attrs: mustprogress uwtable
define hidden void @_ZN6memory10deallocateEPv(ptr noundef %0) local_unnamed_addr #3 align 2 personality ptr @__gxx_personality_v0 {
  %2 = tail call i64 @malloc_usable_size(ptr noundef %0) #25
  %3 = tail call align 8 ptr @llvm.threadlocal.address.p0(ptr align 8 @g_memory_thread_alloc_size)
  %4 = load i64, ptr %3, align 8, !tbaa !12
  %5 = sub i64 %4, %2
  store i64 %5, ptr %3, align 8, !tbaa !12
  tail call void @free(ptr noundef %0) #25
  %6 = load i64, ptr %3, align 8, !tbaa !12
  %7 = icmp slt i64 %6, -100000
  br i1 %7, label %8, label %23

8:                                                ; preds = %1
  %9 = load ptr, ptr @_ZL12g_memory_mux, align 8, !tbaa !14
  %10 = tail call noundef i32 @pthread_mutex_lock(ptr noundef nonnull align 8 dereferenceable(40) %9) #25
  %.not.i.i.i = icmp eq i32 %10, 0
  br i1 %.not.i.i.i, label %_ZNSt10lock_guardISt5mutexEC2ERS0_.exit.i, label %11

11:                                               ; preds = %8
  tail call void @_ZSt20__throw_system_errori(i32 noundef %10) #26
  unreachable

_ZNSt10lock_guardISt5mutexEC2ERS0_.exit.i:        ; preds = %8
  %12 = load i64, ptr %3, align 8, !tbaa !12
  %13 = load i64, ptr @_ZL19g_memory_alloc_size, align 8, !tbaa !12
  %14 = add nsw i64 %13, %12
  store i64 %14, ptr @_ZL19g_memory_alloc_size, align 8, !tbaa !12
  %15 = tail call align 8 ptr @llvm.threadlocal.address.p0(ptr align 8 @g_memory_thread_alloc_count)
  %16 = load i64, ptr %15, align 8, !tbaa !12
  %17 = load i64, ptr @_ZL20g_memory_alloc_count, align 8, !tbaa !12
  %18 = add nsw i64 %17, %16
  store i64 %18, ptr @_ZL20g_memory_alloc_count, align 8, !tbaa !12
  %19 = load i64, ptr @_ZL22g_memory_max_used_size, align 8, !tbaa !12
  %20 = icmp sgt i64 %14, %19
  br i1 %20, label %21, label %_ZL20synchronize_countersb.exit

21:                                               ; preds = %_ZNSt10lock_guardISt5mutexEC2ERS0_.exit.i
  store i64 %14, ptr @_ZL22g_memory_max_used_size, align 8, !tbaa !12
  br label %_ZL20synchronize_countersb.exit

_ZL20synchronize_countersb.exit:                  ; preds = %_ZNSt10lock_guardISt5mutexEC2ERS0_.exit.i, %21
  %22 = tail call noundef i32 @pthread_mutex_unlock(ptr noundef nonnull align 8 dereferenceable(40) %9) #25
  store i64 0, ptr %3, align 8, !tbaa !12
  br label %23

23:                                               ; preds = %_ZL20synchronize_countersb.exit, %1
  ret void
}